(lp0
I901938689
aI901938691
aI901938693
aI901938784
aI901938785
aI901938786
aI901938787
aI901938788
aI901938789
aI901938790
aI901938791
aI901938792
aI901938794
aI901938795
aI901938796
aI901938797
aI901938798
aI901938799
aI901938800
aI901938801
aI901938802
aI901939299
aI901939303
aI901939304
aI901939308
aI901939311
aI901939313
aI901939331
aI901939332
aI901939335
aI901939339
aI901939341
aI901939344
aI901939346
aI901940008
aI901940010
aI901940015
aI901940016
aI901940019
aI901940020
aI901940023
aI901940024
aI901940033
aI901940049
a.